(dp0
S'HVAC_Zone_Hospitality'
p1
ccopy_reg
_reconstructor
p2
(cpandas.core.frame
DataFrame
p3
c__builtin__
object
p4
Ntp5
Rp6
(dp7
S'_metadata'
p8
(lp9
sS'_typ'
p10
S'dataframe'
p11
sS'_data'
p12
g2
(cpandas.core.internals
BlockManager
p13
g4
Ntp14
Rp15
((lp16
cpandas.core.indexes.base
_new_Index
p17
(cpandas.core.indexes.base
Index
p18
(dp19
S'data'
p20
cnumpy.core.multiarray
_reconstruct
p21
(cnumpy
ndarray
p22
(I0
tp23
S'b'
p24
tp25
Rp26
(I1
(I13
tp27
cnumpy
dtype
p28
(S'O8'
p29
I0
I1
tp30
Rp31
(I3
S'|'
p32
NNNI-1
I-1
I63
tp33
bI00
(lp34
S'action'
p35
aS'dt'
p36
aS't_in'
p37
aS't_next'
p38
aS't_out'
p39
aS'temperature_HVAC_Zone_Fellowship_Hall'
p40
aS'temperature_HVAC_Zone_Lobby'
p41
aS'temperature_HVAC_Zone_Pre_K_Classroom'
p42
aS'temperature_HVAC_Zone_Sanctuary_Lb_2'
p43
aS'temperature_HVAC_Zone_Sanctuary_Rf_2'
p44
aS'temperature_HVAC_Zone_School_Age_Rm'
p45
aS'a1'
p46
aS'a2'
p47
atp48
bsS'name'
p49
Nstp50
Rp51
acpandas.core.indexes.datetimes
_new_DatetimeIndex
p52
(cpandas.core.indexes.datetimes
DatetimeIndex
p53
(dp54
S'tz'
p55
cpytz
_p
p56
(S'US/Pacific'
p57
I-28380
I0
S'LMT'
p58
tp59
Rp60
sS'freq'
p61
Nsg20
g21
(g22
(I0
tp62
g24
tp63
Rp64
(I1
(I0
tp65
g28
(S'M8'
p66
I0
I1
tp67
Rp68
(I4
S'<'
p69
NNNI-1
I-1
I0
((dp70
(S'ns'
p71
I1
I1
I1
tp72
tp73
tp74
bI00
S''
p75
tp76
bsg49
S'time'
p77
stp78
Rp79
a(lp80
g21
(g22
(I0
tp81
g24
tp82
Rp83
(I1
(I10
I0
tp84
g28
(S'f8'
p85
I0
I1
tp86
Rp87
(I3
S'<'
p88
NNNI-1
I-1
I0
tp89
bI00
g75
tp90
bag21
(g22
(I0
tp91
g24
tp92
Rp93
(I1
(I3
I0
tp94
g28
(S'i8'
p95
I0
I1
tp96
Rp97
(I3
S'<'
p98
NNNI-1
I-1
I0
tp99
bI00
g75
tp100
ba(lp101
g17
(g18
(dp102
g20
g21
(g22
(I0
tp103
g24
tp104
Rp105
(I1
(I10
tp106
g31
I00
(lp107
g35
ag37
ag38
ag39
ag40
ag41
ag42
ag43
ag44
ag45
atp108
bsg49
Nstp109
Rp110
ag17
(g18
(dp111
g20
g21
(g22
(I0
tp112
g24
tp113
Rp114
(I1
(I3
tp115
g31
I00
(lp116
g36
ag46
ag47
atp117
bsg49
Nstp118
Rp119
a(dp120
S'0.14.1'
p121
(dp122
S'axes'
p123
g16
sS'blocks'
p124
(lp125
(dp126
S'mgr_locs'
p127
g21
(g22
(I0
tp128
g24
tp129
Rp130
(I1
(I10
tp131
g97
I00
S'\x00\x00\x00\x00\x00\x00\x00\x00\x02\x00\x00\x00\x00\x00\x00\x00\x03\x00\x00\x00\x00\x00\x00\x00\x04\x00\x00\x00\x00\x00\x00\x00\x05\x00\x00\x00\x00\x00\x00\x00\x06\x00\x00\x00\x00\x00\x00\x00\x07\x00\x00\x00\x00\x00\x00\x00\x08\x00\x00\x00\x00\x00\x00\x00\t\x00\x00\x00\x00\x00\x00\x00\n\x00\x00\x00\x00\x00\x00\x00'
p132
tp133
bsS'values'
p134
g83
sa(dp135
g127
g21
(g22
(I0
tp136
g24
tp137
Rp138
(I1
(I3
tp139
g97
I00
S'\x01\x00\x00\x00\x00\x00\x00\x00\x0b\x00\x00\x00\x00\x00\x00\x00\x0c\x00\x00\x00\x00\x00\x00\x00'
p140
tp141
bsg134
g93
sasstp142
bsbsS'HVAC_Zone_School_Age_Rm'
p143
g2
(g3
g4
Ntp144
Rp145
(dp146
g8
g9
sg10
g11
sg12
g2
(g13
g4
Ntp147
Rp148
((lp149
g17
(g18
(dp150
g20
g21
(g22
(I0
tp151
g24
tp152
Rp153
(I1
(I13
tp154
g31
I00
(lp155
g35
ag36
ag37
ag38
ag39
ag40
aS'temperature_HVAC_Zone_Hospitality'
p156
ag41
ag42
ag43
ag44
ag46
ag47
atp157
bsg49
Nstp158
Rp159
ag52
(g53
(dp160
g55
g60
sg61
Nsg20
g21
(g22
(I0
tp161
g24
tp162
Rp163
(I1
(I0
tp164
g68
I00
g75
tp165
bsg49
g77
stp166
Rp167
a(lp168
g21
(g22
(I0
tp169
g24
tp170
Rp171
(I1
(I10
I0
tp172
g87
I00
g75
tp173
bag21
(g22
(I0
tp174
g24
tp175
Rp176
(I1
(I3
I0
tp177
g97
I00
g75
tp178
ba(lp179
g17
(g18
(dp180
g20
g21
(g22
(I0
tp181
g24
tp182
Rp183
(I1
(I10
tp184
g31
I00
(lp185
g35
ag37
ag38
ag39
ag40
ag156
ag41
ag42
ag43
ag44
atp186
bsg49
Nstp187
Rp188
ag17
(g18
(dp189
g20
g21
(g22
(I0
tp190
g24
tp191
Rp192
(I1
(I3
tp193
g31
I00
(lp194
g36
ag46
ag47
atp195
bsg49
Nstp196
Rp197
a(dp198
g121
(dp199
g123
g149
sg124
(lp200
(dp201
g127
g21
(g22
(I0
tp202
g24
tp203
Rp204
(I1
(I10
tp205
g97
I00
S'\x00\x00\x00\x00\x00\x00\x00\x00\x02\x00\x00\x00\x00\x00\x00\x00\x03\x00\x00\x00\x00\x00\x00\x00\x04\x00\x00\x00\x00\x00\x00\x00\x05\x00\x00\x00\x00\x00\x00\x00\x06\x00\x00\x00\x00\x00\x00\x00\x07\x00\x00\x00\x00\x00\x00\x00\x08\x00\x00\x00\x00\x00\x00\x00\t\x00\x00\x00\x00\x00\x00\x00\n\x00\x00\x00\x00\x00\x00\x00'
p206
tp207
bsg134
g171
sa(dp208
g127
g21
(g22
(I0
tp209
g24
tp210
Rp211
(I1
(I3
tp212
g97
I00
S'\x01\x00\x00\x00\x00\x00\x00\x00\x0b\x00\x00\x00\x00\x00\x00\x00\x0c\x00\x00\x00\x00\x00\x00\x00'
p213
tp214
bsg134
g176
sasstp215
bsbsS'HVAC_Zone_Pre_K_Classroom'
p216
g2
(g3
g4
Ntp217
Rp218
(dp219
g8
g9
sg10
g11
sg12
g2
(g13
g4
Ntp220
Rp221
((lp222
g17
(g18
(dp223
g20
g21
(g22
(I0
tp224
g24
tp225
Rp226
(I1
(I13
tp227
g31
I00
(lp228
g35
ag36
ag37
ag38
ag39
ag40
ag156
ag41
ag43
ag44
ag45
ag46
ag47
atp229
bsg49
Nstp230
Rp231
ag52
(g53
(dp232
g55
g60
sg61
Nsg20
g21
(g22
(I0
tp233
g24
tp234
Rp235
(I1
(I0
tp236
g68
I00
g75
tp237
bsg49
g77
stp238
Rp239
a(lp240
g21
(g22
(I0
tp241
g24
tp242
Rp243
(I1
(I10
I0
tp244
g87
I00
g75
tp245
bag21
(g22
(I0
tp246
g24
tp247
Rp248
(I1
(I3
I0
tp249
g97
I00
g75
tp250
ba(lp251
g17
(g18
(dp252
g20
g21
(g22
(I0
tp253
g24
tp254
Rp255
(I1
(I10
tp256
g31
I00
(lp257
g35
ag37
ag38
ag39
ag40
ag156
ag41
ag43
ag44
ag45
atp258
bsg49
Nstp259
Rp260
ag17
(g18
(dp261
g20
g21
(g22
(I0
tp262
g24
tp263
Rp264
(I1
(I3
tp265
g31
I00
(lp266
g36
ag46
ag47
atp267
bsg49
Nstp268
Rp269
a(dp270
g121
(dp271
g123
g222
sg124
(lp272
(dp273
g127
g21
(g22
(I0
tp274
g24
tp275
Rp276
(I1
(I10
tp277
g97
I00
S'\x00\x00\x00\x00\x00\x00\x00\x00\x02\x00\x00\x00\x00\x00\x00\x00\x03\x00\x00\x00\x00\x00\x00\x00\x04\x00\x00\x00\x00\x00\x00\x00\x05\x00\x00\x00\x00\x00\x00\x00\x06\x00\x00\x00\x00\x00\x00\x00\x07\x00\x00\x00\x00\x00\x00\x00\x08\x00\x00\x00\x00\x00\x00\x00\t\x00\x00\x00\x00\x00\x00\x00\n\x00\x00\x00\x00\x00\x00\x00'
p278
tp279
bsg134
g243
sa(dp280
g127
g21
(g22
(I0
tp281
g24
tp282
Rp283
(I1
(I3
tp284
g97
I00
S'\x01\x00\x00\x00\x00\x00\x00\x00\x0b\x00\x00\x00\x00\x00\x00\x00\x0c\x00\x00\x00\x00\x00\x00\x00'
p285
tp286
bsg134
g248
sasstp287
bsbsS'HVAC_Zone_Sanctuary_Lb_2'
p288
g2
(g3
g4
Ntp289
Rp290
(dp291
g8
g9
sg10
g11
sg12
g2
(g13
g4
Ntp292
Rp293
((lp294
g17
(g18
(dp295
g20
g21
(g22
(I0
tp296
g24
tp297
Rp298
(I1
(I13
tp299
g31
I00
(lp300
g35
ag36
ag37
ag38
ag39
ag40
ag156
ag41
ag42
ag44
ag45
ag46
ag47
atp301
bsg49
Nstp302
Rp303
ag52
(g53
(dp304
g55
g60
sg61
Nsg20
g21
(g22
(I0
tp305
g24
tp306
Rp307
(I1
(I0
tp308
g68
I00
g75
tp309
bsg49
g77
stp310
Rp311
a(lp312
g21
(g22
(I0
tp313
g24
tp314
Rp315
(I1
(I10
I0
tp316
g87
I00
g75
tp317
bag21
(g22
(I0
tp318
g24
tp319
Rp320
(I1
(I3
I0
tp321
g97
I00
g75
tp322
ba(lp323
g17
(g18
(dp324
g20
g21
(g22
(I0
tp325
g24
tp326
Rp327
(I1
(I10
tp328
g31
I00
(lp329
g35
ag37
ag38
ag39
ag40
ag156
ag41
ag42
ag44
ag45
atp330
bsg49
Nstp331
Rp332
ag17
(g18
(dp333
g20
g21
(g22
(I0
tp334
g24
tp335
Rp336
(I1
(I3
tp337
g31
I00
(lp338
g36
ag46
ag47
atp339
bsg49
Nstp340
Rp341
a(dp342
g121
(dp343
g123
g294
sg124
(lp344
(dp345
g127
g21
(g22
(I0
tp346
g24
tp347
Rp348
(I1
(I10
tp349
g97
I00
S'\x00\x00\x00\x00\x00\x00\x00\x00\x02\x00\x00\x00\x00\x00\x00\x00\x03\x00\x00\x00\x00\x00\x00\x00\x04\x00\x00\x00\x00\x00\x00\x00\x05\x00\x00\x00\x00\x00\x00\x00\x06\x00\x00\x00\x00\x00\x00\x00\x07\x00\x00\x00\x00\x00\x00\x00\x08\x00\x00\x00\x00\x00\x00\x00\t\x00\x00\x00\x00\x00\x00\x00\n\x00\x00\x00\x00\x00\x00\x00'
p350
tp351
bsg134
g315
sa(dp352
g127
g21
(g22
(I0
tp353
g24
tp354
Rp355
(I1
(I3
tp356
g97
I00
S'\x01\x00\x00\x00\x00\x00\x00\x00\x0b\x00\x00\x00\x00\x00\x00\x00\x0c\x00\x00\x00\x00\x00\x00\x00'
p357
tp358
bsg134
g320
sasstp359
bsbsS'HVAC_Zone_Fellowship_Hall'
p360
g2
(g3
g4
Ntp361
Rp362
(dp363
g8
g9
sg10
g11
sg12
g2
(g13
g4
Ntp364
Rp365
((lp366
g17
(g18
(dp367
g20
g21
(g22
(I0
tp368
g24
tp369
Rp370
(I1
(I13
tp371
g31
I00
(lp372
g35
ag36
ag37
ag38
ag39
ag156
ag41
ag42
ag43
ag44
ag45
ag46
ag47
atp373
bsg49
Nstp374
Rp375
ag52
(g53
(dp376
g55
g60
sg61
Nsg20
g21
(g22
(I0
tp377
g24
tp378
Rp379
(I1
(I0
tp380
g68
I00
g75
tp381
bsg49
g77
stp382
Rp383
a(lp384
g21
(g22
(I0
tp385
g24
tp386
Rp387
(I1
(I10
I0
tp388
g87
I00
g75
tp389
bag21
(g22
(I0
tp390
g24
tp391
Rp392
(I1
(I3
I0
tp393
g97
I00
g75
tp394
ba(lp395
g17
(g18
(dp396
g20
g21
(g22
(I0
tp397
g24
tp398
Rp399
(I1
(I10
tp400
g31
I00
(lp401
g35
ag37
ag38
ag39
ag156
ag41
ag42
ag43
ag44
ag45
atp402
bsg49
Nstp403
Rp404
ag17
(g18
(dp405
g20
g21
(g22
(I0
tp406
g24
tp407
Rp408
(I1
(I3
tp409
g31
I00
(lp410
g36
ag46
ag47
atp411
bsg49
Nstp412
Rp413
a(dp414
g121
(dp415
g123
g366
sg124
(lp416
(dp417
g127
g21
(g22
(I0
tp418
g24
tp419
Rp420
(I1
(I10
tp421
g97
I00
S'\x00\x00\x00\x00\x00\x00\x00\x00\x02\x00\x00\x00\x00\x00\x00\x00\x03\x00\x00\x00\x00\x00\x00\x00\x04\x00\x00\x00\x00\x00\x00\x00\x05\x00\x00\x00\x00\x00\x00\x00\x06\x00\x00\x00\x00\x00\x00\x00\x07\x00\x00\x00\x00\x00\x00\x00\x08\x00\x00\x00\x00\x00\x00\x00\t\x00\x00\x00\x00\x00\x00\x00\n\x00\x00\x00\x00\x00\x00\x00'
p422
tp423
bsg134
g387
sa(dp424
g127
g21
(g22
(I0
tp425
g24
tp426
Rp427
(I1
(I3
tp428
g97
I00
S'\x01\x00\x00\x00\x00\x00\x00\x00\x0b\x00\x00\x00\x00\x00\x00\x00\x0c\x00\x00\x00\x00\x00\x00\x00'
p429
tp430
bsg134
g392
sasstp431
bsbsS'HVAC_Zone_Lobby'
p432
g2
(g3
g4
Ntp433
Rp434
(dp435
g8
g9
sg10
g11
sg12
g2
(g13
g4
Ntp436
Rp437
((lp438
g17
(g18
(dp439
g20
g21
(g22
(I0
tp440
g24
tp441
Rp442
(I1
(I13
tp443
g31
I00
(lp444
g35
ag36
ag37
ag38
ag39
ag40
ag156
ag42
ag43
ag44
ag45
ag46
ag47
atp445
bsg49
Nstp446
Rp447
ag52
(g53
(dp448
g55
g60
sg61
Nsg20
g21
(g22
(I0
tp449
g24
tp450
Rp451
(I1
(I0
tp452
g68
I00
g75
tp453
bsg49
g77
stp454
Rp455
a(lp456
g21
(g22
(I0
tp457
g24
tp458
Rp459
(I1
(I10
I0
tp460
g87
I00
g75
tp461
bag21
(g22
(I0
tp462
g24
tp463
Rp464
(I1
(I3
I0
tp465
g97
I00
g75
tp466
ba(lp467
g17
(g18
(dp468
g20
g21
(g22
(I0
tp469
g24
tp470
Rp471
(I1
(I10
tp472
g31
I00
(lp473
g35
ag37
ag38
ag39
ag40
ag156
ag42
ag43
ag44
ag45
atp474
bsg49
Nstp475
Rp476
ag17
(g18
(dp477
g20
g21
(g22
(I0
tp478
g24
tp479
Rp480
(I1
(I3
tp481
g31
I00
(lp482
g36
ag46
ag47
atp483
bsg49
Nstp484
Rp485
a(dp486
g121
(dp487
g123
g438
sg124
(lp488
(dp489
g127
g21
(g22
(I0
tp490
g24
tp491
Rp492
(I1
(I10
tp493
g97
I00
S'\x00\x00\x00\x00\x00\x00\x00\x00\x02\x00\x00\x00\x00\x00\x00\x00\x03\x00\x00\x00\x00\x00\x00\x00\x04\x00\x00\x00\x00\x00\x00\x00\x05\x00\x00\x00\x00\x00\x00\x00\x06\x00\x00\x00\x00\x00\x00\x00\x07\x00\x00\x00\x00\x00\x00\x00\x08\x00\x00\x00\x00\x00\x00\x00\t\x00\x00\x00\x00\x00\x00\x00\n\x00\x00\x00\x00\x00\x00\x00'
p494
tp495
bsg134
g459
sa(dp496
g127
g21
(g22
(I0
tp497
g24
tp498
Rp499
(I1
(I3
tp500
g97
I00
S'\x01\x00\x00\x00\x00\x00\x00\x00\x0b\x00\x00\x00\x00\x00\x00\x00\x0c\x00\x00\x00\x00\x00\x00\x00'
p501
tp502
bsg134
g464
sasstp503
bsbsS'HVAC_Zone_Sanctuary_Rf_2'
p504
g2
(g3
g4
Ntp505
Rp506
(dp507
g8
g9
sg10
g11
sg12
g2
(g13
g4
Ntp508
Rp509
((lp510
g17
(g18
(dp511
g20
g21
(g22
(I0
tp512
g24
tp513
Rp514
(I1
(I13
tp515
g31
I00
(lp516
g35
ag36
ag37
ag38
ag39
ag40
ag156
ag41
ag42
ag43
ag45
ag46
ag47
atp517
bsg49
Nstp518
Rp519
ag52
(g53
(dp520
g55
g60
sg61
Nsg20
g21
(g22
(I0
tp521
g24
tp522
Rp523
(I1
(I0
tp524
g68
I00
g75
tp525
bsg49
g77
stp526
Rp527
a(lp528
g21
(g22
(I0
tp529
g24
tp530
Rp531
(I1
(I10
I0
tp532
g87
I00
g75
tp533
bag21
(g22
(I0
tp534
g24
tp535
Rp536
(I1
(I3
I0
tp537
g97
I00
g75
tp538
ba(lp539
g17
(g18
(dp540
g20
g21
(g22
(I0
tp541
g24
tp542
Rp543
(I1
(I10
tp544
g31
I00
(lp545
g35
ag37
ag38
ag39
ag40
ag156
ag41
ag42
ag43
ag45
atp546
bsg49
Nstp547
Rp548
ag17
(g18
(dp549
g20
g21
(g22
(I0
tp550
g24
tp551
Rp552
(I1
(I3
tp553
g31
I00
(lp554
g36
ag46
ag47
atp555
bsg49
Nstp556
Rp557
a(dp558
g121
(dp559
g123
g510
sg124
(lp560
(dp561
g127
g21
(g22
(I0
tp562
g24
tp563
Rp564
(I1
(I10
tp565
g97
I00
S'\x00\x00\x00\x00\x00\x00\x00\x00\x02\x00\x00\x00\x00\x00\x00\x00\x03\x00\x00\x00\x00\x00\x00\x00\x04\x00\x00\x00\x00\x00\x00\x00\x05\x00\x00\x00\x00\x00\x00\x00\x06\x00\x00\x00\x00\x00\x00\x00\x07\x00\x00\x00\x00\x00\x00\x00\x08\x00\x00\x00\x00\x00\x00\x00\t\x00\x00\x00\x00\x00\x00\x00\n\x00\x00\x00\x00\x00\x00\x00'
p566
tp567
bsg134
g531
sa(dp568
g127
g21
(g22
(I0
tp569
g24
tp570
Rp571
(I1
(I3
tp572
g97
I00
S'\x01\x00\x00\x00\x00\x00\x00\x00\x0b\x00\x00\x00\x00\x00\x00\x00\x0c\x00\x00\x00\x00\x00\x00\x00'
p573
tp574
bsg134
g536
sasstp575
bsbs.